target datalayout = "e-m:e-p270:32:32-p271:32:32-p272:64:64-i64:64-i128:128-f80:128-n8:16:32:64-S128"
target triple = "x86_64-pc-linux-gnu"

%class.btPersistentManifold = type { %struct.btTypedObject, [4 x i8], [4 x %class.btManifoldPoint], ptr, ptr, i32, float, float, i32, i32, i32 }
%struct.btTypedObject = type { i32 }
%class.btManifoldPoint = type <{ %class.btVector3, %class.btVector3, %class.btVector3, %class.btVector3, %class.btVector3, float, float, float, float, float, i32, i32, i32, i32, [4 x i8], ptr, i32, float, float, float, float, float, float, %union.anon.0, %union.anon.1, float, i32, %class.btVector3, %class.btVector3, [4 x i8] }>
%union.anon.0 = type { float }
%union.anon.1 = type { float }
%class.btVector3 = type { [4 x float] }

@gContactDestroyedCallback = dso_local global ptr null, align 8

; Function Attrs: mustprogress uwtable
define dso_local void @_ZN20btPersistentManifold14clearUserCacheER15btManifoldPoint(ptr noundef nonnull align 8 dereferenceable(880) %0, ptr noundef nonnull align 8 dereferenceable(204) %1) #2 align 2 {
  %3 = alloca ptr, align 8
  %4 = alloca ptr, align 8
  %5 = alloca ptr, align 8
  store ptr %0, ptr %3, align 8, !tbaa !12
  store ptr %1, ptr %4, align 8, !tbaa !27
  call void @llvm.lifetime.start.p0(i64 8, ptr %5) #11
  %6 = load ptr, ptr %4, align 8, !tbaa !27
  %7 = getelementptr inbounds nuw %class.btManifoldPoint, ptr %6, i32 0, i32 15
  %8 = load ptr, ptr %7, align 8, !tbaa !29
  store ptr %8, ptr %5, align 8, !tbaa !41
  %9 = load ptr, ptr %5, align 8, !tbaa !41
  %10 = icmp ne ptr %9, null
  br i1 %10, label %11, label %28

11:                                               ; preds = %2
  %12 = load ptr, ptr %4, align 8, !tbaa !27
  %13 = getelementptr inbounds nuw %class.btManifoldPoint, ptr %12, i32 0, i32 15
  %14 = load ptr, ptr %13, align 8, !tbaa !29
  %15 = icmp ne ptr %14, null
  br i1 %15, label %16, label %27

16:                                               ; preds = %11
  %17 = load ptr, ptr @gContactDestroyedCallback, align 8, !tbaa !41
  %18 = icmp ne ptr %17, null
  br i1 %18, label %19, label %27

19:                                               ; preds = %16
  %20 = load ptr, ptr @gContactDestroyedCallback, align 8, !tbaa !41
  %21 = load ptr, ptr %4, align 8, !tbaa !27
  %22 = getelementptr inbounds nuw %class.btManifoldPoint, ptr %21, i32 0, i32 15
  %23 = load ptr, ptr %22, align 8, !tbaa !29
  %24 = call noundef zeroext i1 %20(ptr noundef %23)
  %25 = load ptr, ptr %4, align 8, !tbaa !27
  %26 = getelementptr inbounds nuw %class.btManifoldPoint, ptr %25, i32 0, i32 15
  store ptr null, ptr %26, align 8, !tbaa !29
  br label %27

27:                                               ; preds = %19, %16, %11
  br label %28

28:                                               ; preds = %27, %2
  call void @llvm.lifetime.end.p0(i64 8, ptr %5) #11
  ret void
}

; Function Attrs: inlinehint mustprogress nounwind uwtable
define linkonce_odr dso_local noundef i32 @_ZNK20btPersistentManifold14getNumContactsEv(ptr noundef nonnull align 8 dereferenceable(880) %0) #7 comdat align 2 {
  %2 = alloca ptr, align 8
  store ptr %0, ptr %2, align 8, !tbaa !12
  %3 = load ptr, ptr %2, align 8
  %4 = getelementptr inbounds nuw %class.btPersistentManifold, ptr %3, i32 0, i32 5
  %5 = load i32, ptr %4, align 8, !tbaa !20
  ret i32 %5
}

; Function Attrs: mustprogress uwtable
define dso_local noundef i32 @_ZN20btPersistentManifold16addManifoldPointERK15btManifoldPointb(ptr noundef nonnull align 8 dereferenceable(880) %0, ptr noundef nonnull align 8 dereferenceable(204) %1, i1 noundef zeroext %2) #2 align 2 {
  %4 = alloca ptr, align 8
  %5 = alloca ptr, align 8
  %6 = alloca i8, align 1
  %7 = alloca i32, align 4
  store ptr %0, ptr %4, align 8, !tbaa !12
  store ptr %1, ptr %5, align 8, !tbaa !27
  %8 = zext i1 %2 to i8
  store i8 %8, ptr %6, align 1, !tbaa !45
  %9 = load ptr, ptr %4, align 8
  %10 = load i8, ptr %6, align 1, !tbaa !45, !range !47, !noundef !48
  %11 = trunc i8 %10 to i1
  br i1 %11, label %13, label %12

12:                                               ; preds = %3
  br label %13

13:                                               ; preds = %12, %3
  call void @llvm.lifetime.start.p0(i64 4, ptr %7) #11
  %14 = call noundef i32 @_ZNK20btPersistentManifold14getNumContactsEv(ptr noundef nonnull align 8 dereferenceable(880) %9)
  store i32 %14, ptr %7, align 4, !tbaa !9
  %15 = load i32, ptr %7, align 4, !tbaa !9
  %16 = icmp eq i32 %15, 4
  br i1 %16, label %17, label %24

17:                                               ; preds = %13
  %18 = load ptr, ptr %5, align 8, !tbaa !27
  %19 = call noundef i32 @_ZN20btPersistentManifold16sortCachedPointsERK15btManifoldPoint(ptr noundef nonnull align 8 dereferenceable(880) %9, ptr noundef nonnull align 8 dereferenceable(204) %18)
  store i32 %19, ptr %7, align 4, !tbaa !9
  %20 = getelementptr inbounds nuw %class.btPersistentManifold, ptr %9, i32 0, i32 2
  %21 = load i32, ptr %7, align 4, !tbaa !9
  %22 = sext i32 %21 to i64
  %23 = getelementptr inbounds [4 x %class.btManifoldPoint], ptr %20, i64 0, i64 %22
  call void @_ZN20btPersistentManifold14clearUserCacheER15btManifoldPoint(ptr noundef nonnull align 8 dereferenceable(880) %9, ptr noundef nonnull align 8 dereferenceable(204) %23)
  br label %28

24:                                               ; preds = %13
  %25 = getelementptr inbounds nuw %class.btPersistentManifold, ptr %9, i32 0, i32 5
  %26 = load i32, ptr %25, align 8, !tbaa !20
  %27 = add nsw i32 %26, 1
  store i32 %27, ptr %25, align 8, !tbaa !20
  br label %28

28:                                               ; preds = %24, %17
  %29 = load i32, ptr %7, align 4, !tbaa !9
  %30 = icmp slt i32 %29, 0
  br i1 %30, label %31, label %32

31:                                               ; preds = %28
  store i32 0, ptr %7, align 4, !tbaa !9
  br label %32

32:                                               ; preds = %31, %28
  %33 = load ptr, ptr %5, align 8, !tbaa !27
  %34 = getelementptr inbounds nuw %class.btPersistentManifold, ptr %9, i32 0, i32 2
  %35 = load i32, ptr %7, align 4, !tbaa !9
  %36 = sext i32 %35 to i64
  %37 = getelementptr inbounds [4 x %class.btManifoldPoint], ptr %34, i64 0, i64 %36
  call void @llvm.memcpy.p0.p0.i64(ptr align 8 %37, ptr align 8 %33, i64 204, i1 false), !tbaa.struct !59
  %38 = load i32, ptr %7, align 4, !tbaa !9
  call void @llvm.lifetime.end.p0(i64 4, ptr %7) #11
  ret i32 %38
}