; Function Attrs: mustprogress uwtable
define dso_local noundef range(i32 0, -2147483648) i32 @_ZN20btPersistentManifold16addManifoldPointERK15btManifoldPointb(ptr noundef nonnull align 8 captures(none) dereferenceable(880) %0, ptr noundef nonnull readonly align 8 captures(none) dereferenceable(204) %1, i1 noundef zeroext %2) local_unnamed_addr #1 align 2 {
  %4 = getelementptr inbounds nuw i8, ptr %0, i64 856
  %5 = load i32, ptr %4, align 8, !tbaa !27
  %6 = icmp eq i32 %5, 4
  br i1 %6, label %7, label %17

7:                                                ; preds = %3
  %8 = tail call noundef i32 @_ZN20btPersistentManifold16sortCachedPointsERK15btManifoldPoint(ptr noundef nonnull align 8 dereferenceable(880) %0, ptr noundef nonnull align 8 dereferenceable(204) %1)
  %9 = sext i32 %8 to i64
  %.idx = mul nsw i64 %9, 208
  %10 = getelementptr inbounds nuw i8, ptr %0, i64 128
  %11 = getelementptr i8, ptr %10, i64 %.idx
  %12 = load ptr, ptr %11, align 8, !tbaa !16
  %.not.i = icmp eq ptr %12, null
  br i1 %.not.i, label %_ZN20btPersistentManifold14clearUserCacheER15btManifoldPoint.exit, label %13

13:                                               ; preds = %7
  %14 = load ptr, ptr @gContactDestroyedCallback, align 8
  %.not7.i = icmp eq ptr %14, null
  br i1 %.not7.i, label %_ZN20btPersistentManifold14clearUserCacheER15btManifoldPoint.exit, label %15

15:                                               ; preds = %13
  %16 = tail call noundef zeroext i1 %14(ptr noundef nonnull %12)
  store ptr null, ptr %11, align 8, !tbaa !16
  br label %_ZN20btPersistentManifold14clearUserCacheER15btManifoldPoint.exit

17:                                               ; preds = %3
  %18 = add nsw i32 %5, 1
  store i32 %18, ptr %4, align 8, !tbaa !27
  br label %_ZN20btPersistentManifold14clearUserCacheER15btManifoldPoint.exit

_ZN20btPersistentManifold14clearUserCacheER15btManifoldPoint.exit: ; preds = %15, %13, %7, %17
  %.0 = phi i32 [ %5, %17 ], [ %8, %7 ], [ %8, %13 ], [ %8, %15 ]
  %spec.store.select = tail call i32 @llvm.smax.i32(i32 %.0, i32 0)
  %19 = getelementptr inbounds nuw i8, ptr %0, i64 8
  %20 = zext nneg i32 %spec.store.select to i64
  %21 = getelementptr inbounds nuw [4 x %class.btManifoldPoint], ptr %19, i64 0, i64 %20
  tail call void @llvm.memcpy.p0.p0.i64(ptr noundef nonnull align 8 dereferenceable(204) %21, ptr noundef nonnull align 8 dereferenceable(204) %1, i64 204, i1 false), !tbaa.struct !30
  ret i32 %spec.store.select
}